; Function Attrs: mustprogress uwtable
define void @_ZNK6icu_7711PtnSkeleton11getSkeletonEv(ptr dead_on_unwind noalias writable sret(%"class.icu_77::UnicodeString") align 8 initializes((0, 10)) %0, ptr noundef nonnull readonly align 8 captures(none) dereferenceable(137) %1) local_unnamed_addr #1 align 2 personality ptr @__gxx_personality_v0 {
  %3 = alloca i16, align 2
  store ptr getelementptr inbounds nuw inrange(-16, 88) (i8, ptr @_ZTVN6icu_7713UnicodeStringE, i64 16), ptr %0, align 8, !tbaa !15
  %4 = getelementptr inbounds nuw i8, ptr %0, i64 8
  store i16 2, ptr %4, align 8, !tbaa !17
  %5 = getelementptr inbounds nuw i8, ptr %1, i64 72
  %6 = getelementptr inbounds nuw i8, ptr %1, i64 88
  br label %7

7:                                                ; preds = %_ZNK6icu_7714SkeletonFields13appendFieldToEiRNS_13UnicodeStringE.exit.i, %2
  %indvars.iv.i = phi i64 [ 0, %2 ], [ %indvars.iv.next.i, %_ZNK6icu_7714SkeletonFields13appendFieldToEiRNS_13UnicodeStringE.exit.i ]
  %8 = getelementptr inbounds nuw [16 x i8], ptr %5, i64 0, i64 %indvars.iv.i
  %9 = load i8, ptr %8, align 1, !tbaa !17
  %10 = sext i8 %9 to i16
  %11 = getelementptr inbounds nuw [16 x i8], ptr %6, i64 0, i64 %indvars.iv.i
  %12 = load i8, ptr %11, align 1, !tbaa !17
  %13 = sext i8 %12 to i32
  %14 = icmp sgt i8 %12, 0
  br i1 %14, label %.lr.ph.i.i, label %_ZNK6icu_7714SkeletonFields13appendFieldToEiRNS_13UnicodeStringE.exit.i

.lr.ph.i.i:                                       ; preds = %7, %.noexc
  %.08.i.i = phi i32 [ %16, %.noexc ], [ 0, %7 ]
  call void @llvm.lifetime.start.p0(i64 2, ptr nonnull %3)
  store i16 %10, ptr %3, align 2, !tbaa !79
  %15 = invoke noundef nonnull align 8 dereferenceable(64) ptr @_ZN6icu_7713UnicodeString8doAppendEPKDsii(ptr noundef nonnull align 8 dereferenceable(64) %0, ptr noundef nonnull %3, i32 noundef 0, i32 noundef 1)
          to label %.noexc unwind label %.loopexit

.noexc:                                           ; preds = %.lr.ph.i.i
  call void @llvm.lifetime.end.p0(i64 2, ptr nonnull %3)
  %16 = add nuw nsw i32 %.08.i.i, 1
  %exitcond.not.i.i = icmp eq i32 %16, %13
  br i1 %exitcond.not.i.i, label %_ZNK6icu_7714SkeletonFields13appendFieldToEiRNS_13UnicodeStringE.exit.i, label %.lr.ph.i.i, !llvm.loop !116

_ZNK6icu_7714SkeletonFields13appendFieldToEiRNS_13UnicodeStringE.exit.i: ; preds = %.noexc, %7
  %indvars.iv.next.i = add nuw nsw i64 %indvars.iv.i, 1
  %exitcond.not.i = icmp eq i64 %indvars.iv.next.i, 16
  br i1 %exitcond.not.i, label %_ZNK6icu_7714SkeletonFields8appendToERNS_13UnicodeStringE.exit, label %7, !llvm.loop !117

_ZNK6icu_7714SkeletonFields8appendToERNS_13UnicodeStringE.exit: ; preds = %_ZNK6icu_7714SkeletonFields13appendFieldToEiRNS_13UnicodeStringE.exit.i
  %17 = invoke noundef nonnull align 8 dereferenceable(64) ptr @_ZN6icu_7713UnicodeStringaSERKS0_(ptr noundef nonnull align 8 dereferenceable(64) %0, ptr noundef nonnull align 8 dereferenceable(64) %0)
          to label %18 unwind label %.loopexit.split-lp

18:                                               ; preds = %_ZNK6icu_7714SkeletonFields8appendToERNS_13UnicodeStringE.exit
  %19 = getelementptr inbounds nuw i8, ptr %1, i64 136
  %20 = load i8, ptr %19, align 8, !tbaa !42
  %.not = icmp eq i8 %20, 0
  br i1 %.not, label %_ZN6icu_7713UnicodeString6removeEii.exit, label %21

21:                                               ; preds = %18
  %22 = load i16, ptr %4, align 8, !tbaa !17
  %23 = icmp slt i16 %22, 0
  %24 = ashr i16 %22, 5
  %25 = sext i16 %24 to i32
  %26 = getelementptr inbounds nuw i8, ptr %0, i64 12
  %27 = load i32, ptr %26, align 4
  %28 = select i1 %23, i32 %27, i32 %25
  %29 = invoke noundef i32 @_ZNK6icu_7713UnicodeString9doIndexOfEDsii(ptr noundef nonnull align 8 dereferenceable(64) %0, i16 noundef zeroext 97, i32 noundef 0, i32 noundef %28)
          to label %_ZNK6icu_7713UnicodeString7indexOfEDs.exit unwind label %33

_ZNK6icu_7713UnicodeString7indexOfEDs.exit:       ; preds = %21
  %30 = icmp sgt i32 %29, -1
  br i1 %30, label %31, label %_ZN6icu_7713UnicodeString6removeEii.exit

31:                                               ; preds = %_ZNK6icu_7713UnicodeString7indexOfEDs.exit
  %32 = invoke noundef nonnull align 8 dereferenceable(64) ptr @_ZN6icu_7713UnicodeString9doReplaceEiiPKDsii(ptr noundef nonnull align 8 dereferenceable(64) %0, i32 noundef %29, i32 noundef 1, ptr noundef null, i32 noundef 0, i32 noundef 0)
          to label %_ZN6icu_7713UnicodeString6removeEii.exit unwind label %33

.loopexit:                                        ; preds = %.lr.ph.i.i
  %lpad.loopexit = landingpad { ptr, i32 }
          cleanup
  br label %35

.loopexit.split-lp:                               ; preds = %_ZNK6icu_7714SkeletonFields8appendToERNS_13UnicodeStringE.exit
  %lpad.loopexit.split-lp = landingpad { ptr, i32 }
          cleanup
  br label %35

33:                                               ; preds = %31, %21
  %34 = landingpad { ptr, i32 }
          cleanup
  br label %35

_ZN6icu_7713UnicodeString6removeEii.exit:         ; preds = %31, %18, %_ZNK6icu_7713UnicodeString7indexOfEDs.exit
  ret void

35:                                               ; preds = %.loopexit, %.loopexit.split-lp, %33
  %.pn = phi { ptr, i32 } [ %34, %33 ], [ %lpad.loopexit, %.loopexit ], [ %lpad.loopexit.split-lp, %.loopexit.split-lp ]
  call void @_ZN6icu_7713UnicodeStringD1Ev(ptr noundef nonnull align 8 dereferenceable(64) %0) #35
  resume { ptr, i32 } %.pn
}